	.file	"dyngen.c"
	.text
.Ltext0:
	.p2align 4,,15
.globl strstart
	.type	strstart, @function
strstart:
.LFB148:
	.file 1 "dyngen.c"
	.loc 1 262 0
	.cfi_startproc
.LVL0:
	.loc 1 266 0
	movzbl	(%rsi), %eax
	movq	%rdi, %rcx
.LVL1:
	testb	%al, %al
	jne	.L6
	jmp	.L3
.LVL2:
	.p2align 4,,10
	.p2align 3
.L11:
	.loc 1 270 0
	addq	$1, %rsi
.LVL3:
	.loc 1 269 0
	addq	$1, %rcx
	.loc 1 266 0
	movzbl	(%rsi), %eax
	testb	%al, %al
	je	.L3
.LVL4:
.L6:
	.loc 1 267 0
	cmpb	(%rcx), %al
	je	.L11
	.loc 1 273 0
	xorl	%eax, %eax
.L8:
	.loc 1 275 0
	rep
	ret
	.p2align 4,,10
	.p2align 3
.L3:
	.loc 1 272 0
	testq	%rdx, %rdx
	movl	$1, %eax
	je	.L8
	.loc 1 273 0
	movq	%rcx, (%rdx)
	ret
	.cfi_endproc
.LFE148:
	.size	strstart, .-strstart
	.p2align 4,,15
.globl pstrcpy
	.type	pstrcpy, @function
pstrcpy:
.LFB149:
	.loc 1 278 0
	.cfi_startproc
.LVL5:
	.loc 1 282 0
	testl	%esi, %esi
	jle	.L18
	.loc 1 286 0
	movzbl	(%rdx), %eax
	.loc 1 287 0
	testb	%al, %al
	je	.L16
	movslq	%esi,%rsi
.LVL6:
	leaq	-1(%rdi,%rsi), %rcx
	cmpq	%rcx, %rdi
	jae	.L16
	.loc 1 286 0
	addq	$1, %rdx
.LVL7:
	jmp	.L15
.LVL8:
	.p2align 4,,10
	.p2align 3
.L19:
	.loc 1 287 0
	cmpq	%rcx, %rdi
	jae	.L16
.LVL9:
.L15:
	.loc 1 289 0
	movb	%al, (%rdi)
	.loc 1 286 0
	movzbl	(%rdx), %eax
	.loc 1 289 0
	addq	$1, %rdi
.LVL10:
	.loc 1 286 0
	addq	$1, %rdx
	.loc 1 287 0
	testb	%al, %al
	jne	.L19
.LVL11:
.L16:
	.loc 1 291 0
	movb	$0, (%rdi)
.L18:
	rep
	ret
	.cfi_endproc
.LFE149:
	.size	pstrcpy, .-pstrcpy
	.p2align 4,,15
.globl elf_must_swap
	.type	elf_must_swap, @function
elf_must_swap:
.LFB159:
	.loc 1 368 0
	.cfi_startproc
.LVL12:
	.loc 1 374 0
	xorl	%eax, %eax
	cmpb	$2, 5(%rdi)
	sete	%al
	.loc 1 377 0
	ret
	.cfi_endproc
.LFE159:
	.size	elf_must_swap, .-elf_must_swap
	.p2align 4,,15
.globl find_reloc
	.type	find_reloc, @function
find_reloc:
.LFB165:
	.loc 1 450 0
	.cfi_startproc
.LVL13:
	.loc 1 454 0
	movzwl	ehdr+60(%rip), %ecx
	testl	%ecx, %ecx
	je	.L23
	movq	shdr(%rip), %rdx
	xorl	%eax, %eax
.LVL14:
	jmp	.L26
	.p2align 4,,10
	.p2align 3
.L24:
	addl	$1, %eax
.LVL15:
	addq	$64, %rdx
	cmpl	%ecx, %eax
	jge	.L23
.L26:
	.loc 1 456 0
	cmpl	$4, 4(%rdx)
	jne	.L24
	cmpl	%edi, 44(%rdx)
	jne	.L24
.LVL16:
	.loc 1 460 0
	rep
	ret
.LVL17:
	.p2align 4,,10
	.p2align 3
.L23:
	.loc 1 454 0
	xorl	%eax, %eax
.LVL18:
.LVL19:
	.loc 1 460 0
	.p2align 4,,4
	ret
	.cfi_endproc
.LFE165:
	.size	find_reloc, .-find_reloc
	.section	.rodata.str1.1,"aMS",@progbits,1
.LC0:
	.string	"dyngen: "
.LC1:
	.string	"\n"
	.text
	.p2align 4,,15
	.type	error, @function
error:
.LFB146:
	.loc 1 236 0
	.cfi_startproc
.LVL20:
	pushq	%rbp
.LCFI0:
	.cfi_def_cfa_offset 16
	movzbl	%al, %eax
	pushq	%rbx
.LCFI1:
	.cfi_def_cfa_offset 24
	movq	%rdi, %rbx
	.cfi_offset 3, -24
	.cfi_offset 6, -16
	subq	$216, %rsp
.LCFI2:
	.cfi_def_cfa_offset 240
	.loc 1 236 0
	movq	%rdx, 48(%rsp)
	leaq	0(,%rax,4), %rdx
	movl	$.L30, %eax
	movq	%r8, 64(%rsp)
	movq	%r9, 72(%rsp)
	subq	%rdx, %rax
	leaq	207(%rsp), %rdx
	movq	%rsi, 40(%rsp)
	movq	%rcx, 56(%rsp)
.LBB259:
.LBB261:
	.file 2 "/usr/include/bits/stdio2.h"
	.loc 2 98 0
	movl	$1, %esi
.LBE261:
.LBE259:
	.loc 1 236 0
	jmp	*%rax
	movaps	%xmm7, -15(%rdx)
	movaps	%xmm6, -31(%rdx)
	movaps	%xmm5, -47(%rdx)
	movaps	%xmm4, -63(%rdx)
	movaps	%xmm3, -79(%rdx)
	movaps	%xmm2, -95(%rdx)
	movaps	%xmm1, -111(%rdx)
	movaps	%xmm0, -127(%rdx)
.L30:
	.loc 1 238 0
	leaq	240(%rsp), %rax
.LBB263:
.LBB260:
	.loc 2 98 0
	movq	stderr(%rip), %rdi
.LVL21:
	movl	$.LC0, %edx
.LBE260:
.LBE263:
	.loc 1 238 0
	movl	$8, (%rsp)
	movl	$48, 4(%rsp)
	movq	%rax, 8(%rsp)
	leaq	32(%rsp), %rax
	movq	%rax, 16(%rsp)
.LBB264:
.LBB262:
	.loc 2 98 0
	xorl	%eax, %eax
	call	__fprintf_chk
.LBE262:
.LBE264:
.LBB265:
.LBB266:
	.loc 2 128 0
	movq	stderr(%rip), %rdi
	movq	%rsp, %rcx
	movq	%rbx, %rdx
	movl	$1, %esi
	call	__vfprintf_chk
.LBE266:
.LBE265:
.LBB267:
.LBB268:
	.loc 2 98 0
	movq	stderr(%rip), %rdi
	movl	$.LC1, %edx
	movl	$1, %esi
	xorl	%eax, %eax
	call	__fprintf_chk
.LBE268:
.LBE267:
	.loc 1 243 0
	movl	$1, %edi
	call	exit
	.cfi_endproc
.LFE146:
	.size	error, .-error
	.section	.rodata.str1.8,"aMS",@progbits,1
	.align 8
.LC2:
	.string	"dyngen (c) 2003 Fabrice Bellard\nusage: dyngen [-o outfile] [-c] objfile\nGenerate a dynamic code generator from an object file\n-c     output enum of operations\n-g     output gen_op_xx() functions\n"
	.text
	.p2align 4,,15
.globl usage
	.type	usage, @function
usage:
.LFB173:
	.loc 1 2885 0
	.cfi_startproc
.LBB269:
.LBB270:
	.loc 2 105 0
	movl	$1, %edi
.LBE270:
.LBE269:
	.loc 1 2885 0
	subq	$8, %rsp
.LCFI3:
	.cfi_def_cfa_offset 16
.LBB272:
.LBB271:
	.loc 2 105 0
	movl	$.LC2, %esi
	xorl	%eax, %eax
	call	__printf_chk
.LBE271:
.LBE272:
	.loc 1 2892 0
	movl	$1, %edi
	call	exit
	.cfi_endproc
.LFE173:
	.size	usage, .-usage
	.section	.rodata.str1.1
.LC3:
	.string	"__op_param"
.LC4:
	.string	"__op_gen_label"
.LC5:
	.string	"(long)(&%s)"
.LC6:
	.string	"param%s"
.LC7:
	.string	"gen_labels[param%s]"
	.text
	.p2align 4,,15
.globl get_reloc_expr
	.type	get_reloc_expr, @function
get_reloc_expr:
.LFB170:
	.loc 1 1216 0
	.cfi_startproc
.LVL22:
.LBB273:
.LBB274:
	.loc 1 267 0
	cmpb	$95, (%rdx)
	movq	%rdx, %r9
	movl	$.LC3, %eax
.LVL23:
	je	.L36
.LVL24:
	jmp	.L35
.LVL25:
	.p2align 4,,10
	.p2align 3
.L38:
	cmpb	%cl, (%r9)
	jne	.L46
.LVL26:
.L36:
	.loc 1 270 0
	addq	$1, %rax
	.loc 1 269 0
	addq	$1, %r9
	.loc 1 266 0
	movzbl	(%rax), %ecx
	testb	%cl, %cl
	jne	.L38
.LBE274:
.LBE273:
.LBB276:
.LBB277:
	.loc 2 65 0
	movslq	%esi,%rsi
.LVL27:
	movl	$.LC6, %r8d
	movq	$-1, %rcx
	movl	$1, %edx
	xorl	%eax, %eax
.LVL28:
	jmp	__snprintf_chk
.LVL29:
	.p2align 4,,10
	.p2align 3
.L46:
.LBE277:
.LBE276:
.LBB278:
.LBB275:
	.loc 1 267 0
	movq	%rdx, %rcx
	movl	$.LC4, %eax
.LVL30:
	jmp	.L37
.LVL31:
	.p2align 4,,10
	.p2align 3
.L40:
.LBE275:
.LBE278:
.LBB279:
.LBB280:
	cmpb	%r8b, (%rcx)
	jne	.L35
.LVL32:
.L37:
	.loc 1 270 0
	addq	$1, %rax
	.loc 1 269 0
	addq	$1, %rcx
	.loc 1 266 0
	movzbl	(%rax), %r8d
	testb	%r8b, %r8b
	jne	.L40
.LBE280:
.LBE279:
.LBB281:
.LBB282:
	.loc 2 65 0
	movq	%rcx, %r9
	movslq	%esi,%rsi
.LVL33:
	movl	$.LC7, %r8d
	movq	$-1, %rcx
.LVL34:
	movl	$1, %edx
	xorl	%eax, %eax
.LVL35:
	jmp	__snprintf_chk
.LVL36:
	.p2align 4,,10
	.p2align 3
.L35:
.LBE282:
.LBE281:
.LBB283:
.LBB284:
	movq	%rdx, %r9
	movslq	%esi,%rsi
.LVL37:
	movl	$.LC5, %r8d
	movq	$-1, %rcx
.LVL38:
	movl	$1, %edx
.LVL39:
	xorl	%eax, %eax
.LVL40:
	jmp	__snprintf_chk
.LVL41:
.LBE284:
.LBE283:
	.cfi_endproc
.LFE170:
	.size	get_reloc_expr, .-get_reloc_expr
	.section	.rodata.str1.1
.LC8:
	.string	"empty code for %s"
	.section	.rodata.str1.8
	.align 8
.LC9:
	.string	"ret or jmp expected at the end of %s"
	.section	.rodata.str1.1
.LC10:
	.string	"too many arguments in %s"
	.section	.rodata.str1.8
	.align 8
.LC11:
	.string	"inconsistent argument numbering in %s"
	.section	.rodata.str1.1
.LC12:
	.string	"DEF(%s, %d, %d)\n"
.LC13:
	.string	"case INDEX_%s: {\n"
.LC14:
	.string	"    long "
.LC15:
	.string	"param%d"
.LC16:
	.string	", "
.LC17:
	.string	";\n"
.LC18:
	.string	"    extern void %s();\n"
.LC19:
	.string	"__op_jmp"
.LC20:
	.string	"extern char %s;\n"
	.section	.rodata.str1.8
	.align 8
.LC21:
	.string	"    memcpy(gen_code_ptr, (void *)((char *)&%s+%d), %d);\n"
	.section	.rodata.str1.1
.LC22:
	.string	"__op_label"
	.section	.rodata.str1.8
	.align 8
.LC23:
	.string	"__op_labelN in invalid section"
	.align 8
.LC24:
	.string	"    label_offsets[%d] = %ld + (gen_code_ptr - gen_code_buf);\n"
	.align 8
.LC25:
	.string	"    param%d = *opparam_ptr++;\n"
	.align 8
.LC26:
	.string	"    *(uint32_t *)(gen_code_ptr + %d) = (uint32_t)%s + %d;\n"
	.align 8
.LC27:
	.string	"    *(uint32_t *)(gen_code_ptr + %d) = (int32_t)%s + %d;\n"
	.align 8
.LC28:
	.string	"    *(uint32_t *)(gen_code_ptr + %d) = %s - (long)(gen_code_ptr + %d) + %d;\n"
	.align 8
.LC29:
	.string	"unsupported X86_64 relocation (%d)"
	.section	.rodata.str1.1
.LC30:
	.string	"    gen_code_ptr += %d;\n"
.LC31:
	.string	"}\n"
.LC32:
	.string	"break;\n\n"
.LC33:
	.string	"static inline void gen_%s("
.LC34:
	.string	"long param%d"
.LC35:
	.string	"void"
.LC36:
	.string	")\n"
.LC37:
	.string	"{\n"
	.section	.rodata.str1.8
	.align 8
.LC38:
	.string	"    *gen_opparam_ptr++ = param%d;\n"
	.align 8
.LC39:
	.string	"    *gen_opc_ptr++ = INDEX_%s;\n"
	.section	.rodata.str1.1
.LC40:
	.string	"}\n\n"
	.text
	.p2align 4,,15
.globl gen_code
	.type	gen_code, @function
gen_code:
.LFB171:
	.loc 1 1437 0
	.cfi_startproc
.LVL42:
	pushq	%r15
.LCFI4:
	.cfi_def_cfa_offset 16
	pushq	%r14
.LCFI5:
	.cfi_def_cfa_offset 24
	pushq	%r13
.LCFI6:
	.cfi_def_cfa_offset 32
	pushq	%r12
.LCFI7:
	.cfi_def_cfa_offset 40
	pushq	%rbp
.LCFI8:
	.cfi_def_cfa_offset 48
	movq	%rcx, %rbp
	.cfi_offset 6, -48
	.cfi_offset 12, -40
	.cfi_offset 13, -32
	.cfi_offset 14, -24
	.cfi_offset 15, -16
	pushq	%rbx
.LCFI9:
	.cfi_def_cfa_offset 56
	movq	%rsi, %rbx
	.cfi_offset 3, -56
	subq	$344, %rsp
.LCFI10:
	.cfi_def_cfa_offset 400
	.loc 1 1437 0
	movq	%fs:40, %rax
	movq	%rax, 328(%rsp)
	xorl	%eax, %eax
	.loc 1 1451 0
	movq	text(%rip), %rax
	.loc 1 1437 0
	movq	%rdi, 40(%rsp)
	movl	%r8d, 36(%rsp)
	.loc 1 1451 0
	addq	%rsi, %rax
	.loc 1 1452 0
	movq	%rax, %r15
.LVL43:
	.loc 1 1451 0
	movq	%rax, 24(%rsp)
	.loc 1 1452 0
	addq	%rdx, %r15
.LBB285:
	.loc 1 1472 0
	movl	%r15d, %edx
.LVL44:
	subl	%eax, %edx
	movl	%edx, 32(%rsp)
	je	.L136
.LVL45:
	.loc 1 1474 0
	cmpb	$-61, -1(%r15)
.LVL46:
	jne	.L49
.LBE285:
	.loc 1 1687 0
	movl	nb_relocs(%rip), %esi
.LVL47:
.LBB286:
	.loc 1 1477 0
	xorl	%r13d, %r13d
.LVL48:
.LBE286:
	.loc 1 1685 0
	movb	$0, 48(%rsp)
	movb	$0, 49(%rsp)
	movb	$0, 50(%rsp)
	.loc 1 1687 0
	movq	relocs(%rip), %r12
.LVL49:
	testl	%esi, %esi
	jle	.L51
.LBB287:
	.loc 1 1689 0
	movq	%r15, %r14
	subq	24(%rsp), %r14
	addq	%rbx, %r14
.LVL50:
	.p2align 4,,10
	.p2align 3
.L123:
.LBB291:
.LBB292:
	.loc 1 464 0
	movq	(%r12), %rax
.LVL51:
.LBE292:
.LBE291:
	.loc 1 1689 0
	cmpq	%rax, %rbx
	ja	.L52
	cmpq	%rax, %r14
	jbe	.L52
.LBB293:
.LBB294:
	.loc 1 469 0
	mov	12(%r12), %eax
.LVL52:
	leaq	(%rax,%rax,2), %rdx
	movq	symtab(%rip), %rax
	mov	(%rax,%rdx,8), %ecx
.LVL53:
.LBE294:
.LBE293:
	.loc 1 1692 0
	addq	strtab(%rip), %rcx
.LVL54:
	je	.L52
.LBB295:
.LBB296:
	.loc 1 267 0
	cmpb	$95, (%rcx)
	movq	%rcx, %rdi
.LVL55:
	movl	$.LC3, %eax
.LVL56:
	je	.L53
.LVL57:
	jmp	.L52
.LVL58:
	.p2align 4,,10
	.p2align 3
.L55:
	cmpb	%dl, (%rdi)
	jne	.L137
.LVL59:
.L53:
	.loc 1 270 0
	addq	$1, %rax
	.loc 1 269 0
	addq	$1, %rdi
	.loc 1 266 0
	movzbl	(%rax), %edx
	testb	%dl, %dl
	jne	.L55
.LVL60:
.L56:
.LBE296:
.LBE295:
	.loc 1 1696 0
	xorl	%esi, %esi
	movl	$10, %edx
	call	strtoul
.LVL61:
	.loc 1 1697 0
	cmpl	$3, %eax
.LVL62:
	jg	.L138
	.loc 1 1699 0
	subl	$1, %eax
.LVL63:
	cltq
	movb	$1, 48(%rsp,%rax)
.LVL64:
	.p2align 4,,10
	.p2align 3
.L52:
.LBE287:
	.loc 1 1687 0
	addl	$1, %r13d
.LVL65:
	cmpl	%r13d, nb_relocs(%rip)
	jle	.L59
	addq	$24, %r12
.LVL66:
	jmp	.L123
.LVL67:
	.p2align 4,,10
	.p2align 3
.L137:
.LBB298:
.LBB290:
.LBB297:
	.loc 1 267 0
	movl	$.LC4, %eax
.LVL68:
	jmp	.L54
.LVL69:
	.p2align 4,,10
	.p2align 3
.L57:
.LBE297:
.LBE290:
.LBB288:
.LBB289:
	cmpb	%dl, (%rcx)
	.p2align 4,,2
	jne	.L52
.LVL70:
.L54:
	.loc 1 270 0
	addq	$1, %rax
	.loc 1 269 0
	addq	$1, %rcx
	.loc 1 266 0
	movzbl	(%rax), %edx
	testb	%dl, %dl
	jne	.L57
	movq	%rcx, %rdi
.LVL71:
	jmp	.L56
.LVL72:
	.p2align 4,,10
	.p2align 3
.L59:
.LBE289:
.LBE288:
.LBE298:
	.loc 1 1705 0
	cmpb	$0, 48(%rsp)
	je	.L51
	cmpb	$0, 49(%rsp)
	movl	$1, %r14d
.LVL73:
	movl	$1, %eax
.LVL74:
	je	.L114
	cmpb	$0, 50(%rsp)
	movb	$3, %r14b
.LVL75:
	je	.L139
.LVL76:
.L64:
.LBB299:
	.loc 1 1475 0
	movl	32(%rsp), %eax
.LVL77:
	subl	$1, %eax
.LBE299:
	.loc 1 1712 0
	cmpl	$2, 36(%rsp)
.LBB300:
	.loc 1 1475 0
	movl	%eax, 32(%rsp)
.LBE300:
	.loc 1 1712 0
	je	.L140
	.loc 1 1714 0
	cmpl	$1, 36(%rsp)
	je	.L141
.LBB301:
.LBB302:
	.loc 2 98 0
	movq	40(%rsp), %rcx
.LVL78:
	xorl	%eax, %eax
	movl	$.LC33, %edx
	movl	$1, %esi
	movq	%rbp, %rdi
.LVL79:
.LBE302:
.LBE301:
	.loc 1 2617 0
	xorl	%ebx, %ebx
.LVL80:
.LBB304:
.LBB303:
	.loc 2 98 0
	call	__fprintf_chk
.LVL81:
.LBE303:
.LBE304:
	.loc 1 2617 0
	testl	%r14d, %r14d
	je	.L142
.L106:
	.loc 1 2623 0
	addl	$1, %ebx
.LVL82:
.LBB305:
.LBB306:
	.loc 2 98 0
	xorl	%eax, %eax
	movl	$.LC34, %edx
	movl	%ebx, %ecx
	movl	$1, %esi
	movq	%rbp, %rdi
	call	__fprintf_chk
.LBE306:
.LBE305:
	.loc 1 2620 0
	cmpl	%r14d, %ebx
	jge	.L143
.LBB307:
.LBB308:
	.loc 2 98 0
	movl	$.LC16, %edx
	movl	$1, %esi
	movq	%rbp, %rdi
	xorl	%eax, %eax
	call	__fprintf_chk
	jmp	.L106
.LVL83:
.L139:
.LBE308:
.LBE307:
	.loc 1 1705 0
	movb	$2, %r14b
	movb	$2, %al
.LVL84:
	.p2align 4,,10
	.p2align 3
.L114:
	.loc 1 1707 0
	addl	$1, %eax
.LVL85:
	cmpl	$3, %eax
	je	.L64
	.loc 1 1708 0
	movslq	%eax,%rdx
.LVL86:
	cmpb	$0, 48(%rsp,%rdx)
	je	.L114
	.loc 1 1709 0
	movq	40(%rsp), %rsi
	movl	$.LC11, %edi
.LVL87:
	xorl	%eax, %eax
	call	error
.LVL88:
	.p2align 4,,10
	.p2align 3
.L143:
.LBB309:
.LBB311:
	.loc 2 98 0
	movl	$.LC36, %edx
	movl	$1, %esi
	movq	%rbp, %rdi
	xorl	%eax, %eax
.LBE311:
.LBE309:
.LBB313:
.LBB315:
	xorl	%ebx, %ebx
.LVL89:
.LBE315:
.LBE313:
.LBB317:
.LBB310:
	call	__fprintf_chk
.LBE310:
.LBE317:
.LBB318:
.LBB314:
	movl	$.LC37, %edx
	movl	$1, %esi
	movq	%rbp, %rdi
	xorl	%eax, %eax
	call	__fprintf_chk
	.p2align 4,,10
	.p2align 3
.L109:
.LBE314:
.LBE318:
	.loc 1 2629 0
	addl	$1, %ebx
.LVL90:
.LBB319:
.LBB320:
	.loc 2 98 0
	xorl	%eax, %eax
	movl	$.LC38, %edx
	movl	%ebx, %ecx
	movl	$1, %esi
	movq	%rbp, %rdi
	call	__fprintf_chk
.LBE320:
.LBE319:
	.loc 1 2628 0
	cmpl	%r14d, %ebx
	jl	.L109
.L107:
.LBB321:
.LBB322:
	.loc 2 98 0
	movq	40(%rsp), %rcx
	movl	$.LC39, %edx
	movl	$1, %esi
	movq	%rbp, %rdi
	xorl	%eax, %eax
	call	__fprintf_chk
.LBE322:
.LBE321:
.LBB323:
.LBB324:
	movl	$.LC40, %edx
	movl	$1, %esi
	movq	%rbp, %rdi
	xorl	%eax, %eax
	call	__fprintf_chk
.LVL91:
.L112:
.LBE324:
.LBE323:
	.loc 1 2634 0
	movq	328(%rsp), %rax
	xorq	%fs:40, %rax
	jne	.L144
	addq	$344, %rsp
	popq	%rbx
.LVL92:
	popq	%rbp
.LVL93:
	popq	%r12
.LVL94:
	popq	%r13
.LVL95:
	popq	%r14
.LVL96:
	popq	%r15
.LVL97:
	ret
.LVL98:
.L141:
.LBB325:
.LBB326:
	.loc 2 98 0
	movq	40(%rsp), %rcx
.LVL99:
	xorl	%eax, %eax
	movl	$.LC13, %edx
	movl	$1, %esi
	movq	%rbp, %rdi
.LVL100:
	call	__fprintf_chk
.LVL101:
.LBE326:
.LBE325:
	.loc 1 1718 0
	testl	%r14d, %r14d
	je	.L69
.LBB327:
.LBB328:
	.loc 2 98 0
	movl	$.LC14, %edx
	movl	$1, %esi
	movq	%rbp, %rdi
	xorl	%eax, %eax
	xorl	%r12d, %r12d
.LVL102:
	call	__fprintf_chk
.L70:
.LBE328:
.LBE327:
	.loc 1 1723 0
	addl	$1, %r12d
.LVL103:
.LBB329:
.LBB330:
	.loc 2 98 0
	xorl	%eax, %eax
	movl	$.LC15, %edx
	movl	%r12d, %ecx
	movl	$1, %esi
	movq	%rbp, %rdi
	call	__fprintf_chk
.LBE330:
.LBE329:
	.loc 1 1720 0
	cmpl	%r14d, %r12d
	jge	.L145
.LBB331:
.LBB332:
	.loc 2 98 0
	movl	$.LC16, %edx
	movl	$1, %esi
	movq	%rbp, %rdi
	xorl	%eax, %eax
	call	__fprintf_chk
	jmp	.L70
.L145:
.LBE332:
.LBE331:
.LBB333:
.LBB334:
	movl	$.LC17, %edx
	movl	$1, %esi
	movq	%rbp, %rdi
	xorl	%eax, %eax
	call	__fprintf_chk
.LVL104:
.L69:
.LBE334:
.LBE333:
.LBB335:
.LBB336:
	movq	40(%rsp), %rcx
	xorl	%eax, %eax
	movl	$.LC18, %edx
	movl	$1, %esi
	movq	%rbp, %rdi
	call	__fprintf_chk
.LBE336:
.LBE335:
	.loc 1 1733 0
	movl	nb_relocs(%rip), %ecx
	movq	relocs(%rip), %r12
.LVL105:
	testl	%ecx, %ecx
	jle	.L72
.LBB337:
	.loc 1 1735 0
	subq	24(%rsp), %r15
.LVL106:
.LBE337:
	.loc 1 1733 0
	xorl	%r13d, %r13d
.LVL107:
.LBB354:
	.loc 1 1735 0
	addq	%rbx, %r15
.LVL108:
	.p2align 4,,10
	.p2align 3
.L81:
.LBB342:
.LBB343:
	.loc 1 464 0
	movq	(%r12), %rax
.LVL109:
.LBE343:
.LBE342:
	.loc 1 1735 0
	cmpq	%rax, %rbx
	ja	.L73
	cmpq	%rax, %r15
	jbe	.L73
.LBB344:
.LBB345:
	.loc 1 469 0
	mov	12(%r12), %eax
.LVL110:
	leaq	(%rax,%rax,2), %rdx
	movq	symtab(%rip), %rax
	mov	(%rax,%rdx,8), %ecx
.LVL111:
.LBE345:
.LBE344:
	.loc 1 1738 0
	addq	strtab(%rip), %rcx
.LVL112:
	je	.L73
	.loc 1 1740 0
	movzbl	(%rcx), %esi
	testb	%sil, %sil
	je	.L73
.LBB346:
.LBB347:
	.loc 1 267 0
	cmpb	$95, %sil
	movq	%rcx, %rdx
	movl	$.LC3, %eax
.LVL113:
	je	.L75
.LVL114:
	jmp	.L74
	.p2align 4,,10
	.p2align 3
.L77:
	.loc 1 269 0
	addq	$1, %rdx
	.loc 1 267 0
	cmpb	%sil, (%rdx)
	jne	.L146
.LVL115:
.L75:
	.loc 1 270 0
	addq	$1, %rax
	.loc 1 266 0
	movzbl	(%rax), %esi
	testb	%sil, %sil
	jne	.L77
.LVL116:
	.p2align 4,,10
	.p2align 3
.L73:
.LBE347:
.LBE346:
.LBE354:
	.loc 1 1733 0
	addl	$1, %r13d
.LVL117:
	cmpl	%r13d, nb_relocs(%rip)
	jle	.L72
	addq	$24, %r12
.LVL118:
	jmp	.L81
.LVL119:
.L72:
.LBB355:
.LBB356:
	.loc 2 98 0
	movl	32(%rsp), %r9d
	movq	40(%rsp), %rcx
.LVL120:
	xorl	%r8d, %r8d
	movl	$.LC21, %edx
.LVL121:
	xorl	%eax, %eax
.LVL122:
	movl	$1, %esi
	movq	%rbp, %rdi
.LBE356:
.LBE355:
	.loc 1 1772 0
	movl	%ebx, 36(%rsp)
.LBB358:
.LBB357:
	.loc 2 98 0
	call	__fprintf_chk
.LBE357:
.LBE358:
.LBB359:
	.loc 1 1782 0
	movl	nb_syms(%rip), %edx
	movq	symtab(%rip), %r12
.LVL123:
	testl	%edx, %edx
	jle	.L82
.LBB372:
	.loc 1 1832 0
	movslq	32(%rsp),%rax
.LVL124:
.LBE372:
	.loc 1 1782 0
	xorl	%r13d, %r13d
.LVL125:
.LBB371:
	.loc 1 1832 0
	addq	%rbx, %rax
.LVL126:
	movq	%rax, 24(%rsp)
.LVL127:
	.p2align 4,,10
	.p2align 3
.L95:
.LBE371:
.LBB368:
.LBB369:
	.loc 1 474 0
	mov	(%r12), %edi
.LVL128:
.LBE369:
.LBE368:
.LBB365:
.LBB366:
	.loc 1 267 0
	movl	$.LC22, %eax
.LVL129:
.LBE366:
.LBE365:
.LBB364:
.LBB370:
	.loc 1 474 0
	addq	strtab(%rip), %rdi
.LBE370:
.LBE364:
.LBB363:
.LBB367:
	.loc 1 267 0
	cmpb	$95, (%rdi)
	je	.L84
	jmp	.L83
.LVL130:
	.p2align 4,,10
	.p2align 3
.L85:
	cmpb	%dl, (%rdi)
	jne	.L83
.LVL131:
.L84:
	.loc 1 270 0
	addq	$1, %rax
.LVL132:
	.loc 1 269 0
	addq	$1, %rdi
.LVL133:
	.loc 1 266 0
	movzbl	(%rax), %edx
.LVL134:
	testb	%dl, %dl
	jne	.L85
.LBE367:
.LBE363:
.LBB362:
	.loc 1 1803 0
	movzwl	6(%r12), %r11d
	movq	sdata(%rip), %r8
	movzwl	%r11w, %eax
.LVL135:
	movq	(%r8,%rax,8), %rax
.LVL136:
	.loc 1 1805 0
	testq	%rax, %rax
	je	.L147
.LBB377:
.LBB379:
.LBB380:
	.loc 1 454 0
	movzwl	ehdr+60(%rip), %r9d
.LVL137:
.LBE380:
.LBE379:
.LBE377:
	.loc 1 1807 0
	movq	8(%r12), %rsi
.LBB376:
	.loc 1 1817 0
	movzwl	%r11w, %r11d
.LBE376:
	.loc 1 1811 0
	movq	(%rax,%rsi), %r15
.LVL138:
.LBB375:
.LBB378:
.LBB381:
	.loc 1 454 0
	testl	%r9d, %r9d
	je	.L87
	movq	shdr(%rip), %r10
	xorl	%eax, %eax
.LVL139:
	jmp	.L90
.LVL140:
	.p2align 4,,10
	.p2align 3
.L88:
	addl	$1, %eax
.LVL141:
	cmpl	%r9d, %eax
	jge	.L87
.LVL142:
.L90:
	.loc 1 455 0
	movslq	%eax,%rcx
.LVL143:
	movq	%rcx, %rdx
.LVL144:
	salq	$6, %rdx
	leaq	(%r10,%rdx), %rdx
.LVL145:
	.loc 1 456 0
	cmpl	$4, 4(%rdx)
	jne	.L88
	cmpl	%r11d, 44(%rdx)
	jne	.L88
.LBE381:
.LBE378:
	.loc 1 1818 0
	testl	%eax, %eax
	movq	%rdx, %r9
	je	.L87
.LVL146:
	.loc 1 1819 0
	movq	32(%rdx), %rax
.LVL147:
	xorl	%edx, %edx
	divq	56(%r9)
	.loc 1 1821 0
	movq	(%r8,%rcx,8), %rdx
	.loc 1 1822 0
	testl	%eax, %eax
.LVL148:
	jle	.L87
	.loc 1 1825 0
	xorl	%ecx, %ecx
.LVL149:
	.loc 1 1823 0
	cmpq	%rsi, (%rdx)
.LVL150:
	jne	.L93
	jmp	.L91
	.p2align 4,,10
	.p2align 3
.L94:
	.loc 1 1827 0
	addq	$24, %rdx
.LVL151:
	.loc 1 1823 0
	cmpq	%rsi, (%rdx)
	.p2align 4,,3
	je	.L91
.L93:
	.loc 1 1822 0
	addl	$1, %ecx
.LVL152:
	cmpl	%ecx, %eax
	.p2align 4,,3
	jg	.L94
.LVL153:
	.p2align 4,,10
	.p2align 3
.L87:
.LBE375:
	.loc 1 1832 0
	cmpq	%rbx, %r15
	jb	.L83
	cmpq	24(%rsp), %r15
	.p2align 4,,2
	jbe	.L148
.LVL154:
	.p2align 4,,10
	.p2align 3
.L83:
.LBE362:
	.loc 1 1782 0
	addl	$1, %r13d
.LVL155:
	cmpl	%r13d, nb_syms(%rip)
	jle	.L82
.L149:
	addq	$24, %r12
.LVL156:
	jmp	.L95
.LVL157:
	.p2align 4,,10
	.p2align 3
.L91:
.LBB361:
.LBB382:
	.loc 1 1824 0
	movq	16(%rdx), %r15
	.loc 1 1825 0
	jmp	.L87
.LVL158:
.L148:
.LBE382:
	.loc 1 1833 0
	xorl	%esi, %esi
.LVL159:
	movl	$10, %edx
.LVL160:
.LBE361:
	.loc 1 1782 0
	addl	$1, %r13d
.LVL161:
.LBB360:
	.loc 1 1833 0
	call	strtol
.LVL162:
.LBB373:
.LBB374:
	.loc 2 98 0
	movq	%r15, %r8
	movl	%eax, %ecx
	movl	$.LC24, %edx
	subq	%rbx, %r8
	xorl	%eax, %eax
	movl	$1, %esi
	movq	%rbp, %rdi
	call	__fprintf_chk
.LBE374:
.LBE373:
.LBE360:
	.loc 1 1782 0
	cmpl	%r13d, nb_syms(%rip)
	jg	.L149
.LVL163:
.L82:
.LBE359:
	.loc 1 1841 0
	testl	%r14d, %r14d
	je	.L96
	xorl	%r12d, %r12d
.LVL164:
	.p2align 4,,10
	.p2align 3
.L97:
	.loc 1 1842 0
	addl	$1, %r12d
.LVL165:
.LBB384:
.LBB385:
	.loc 2 98 0
	xorl	%eax, %eax
.LVL166:
	movl	$.LC25, %edx
.LVL167:
	movl	%r12d, %ecx
.LVL168:
	movl	$1, %esi
.LVL169:
	movq	%rbp, %rdi
.LVL170:
	call	__fprintf_chk
.LVL171:
.LBE385:
.LBE384:
	.loc 1 1841 0
	cmpl	%r14d, %r12d
	jl	.L97
.LVL172:
.L96:
.LBB386:
	.loc 1 1926 0
	movl	nb_relocs(%rip), %eax
.LVL173:
	movq	relocs(%rip), %r12
.LVL174:
	testl	%eax, %eax
	jle	.L98
	.loc 1 1927 0
	movslq	32(%rsp),%r14
.LVL175:
	.loc 1 1926 0
	xorl	%r13d, %r13d
.LVL176:
	.loc 1 1930 0
	leaq	64(%rsp), %r15
.LVL177:
	.loc 1 1927 0
	addq	%rbx, %r14
.LVL178:
	jmp	.L104
	.p2align 4,,10
	.p2align 3
.L99:
	.loc 1 1926 0
	addl	$1, %r13d
.LVL179:
	cmpl	%r13d, nb_relocs(%rip)
	jle	.L98
.L151:
	addq	$24, %r12
.LVL180:
.L104:
	.loc 1 1927 0
	movq	(%r12), %rax
	cmpq	%rax, %rbx
	ja	.L99
	cmpq	%r14, %rax
	jae	.L99
	.loc 1 1930 0
	mov	12(%r12), %eax
	movl	$256, %esi
.LVL181:
	movq	%r15, %rdi
.LVL182:
	leaq	(%rax,%rax,2), %rdx
	movq	symtab(%rip), %rax
	mov	(%rax,%rdx,8), %edx
	addq	strtab(%rip), %rdx
	call	get_reloc_expr
.LVL183:
	.loc 1 1931 0
	movzbl	8(%r12), %esi
.LVL184:
	.loc 1 1933 0
	movq	(%r12), %rcx
	subl	36(%rsp), %ecx
.LVL185:
	.loc 1 1932 0
	movq	16(%r12), %r9
	.loc 1 1934 0
	cmpl	$10, %esi
	je	.L102
	cmpl	$11, %esi
	je	.L103
	cmpl	$2, %esi
	je	.L150
	.loc 1 1948 0
	movl	$.LC29, %edi
	xorl	%eax, %eax
	call	error
.LVL186:
.L142:
.LBE386:
.LBB395:
.LBB396:
	.loc 2 98 0
	movq	%rbp, %rdi
	movl	$.LC35, %edx
	movl	$1, %esi
	xorl	%eax, %eax
	call	__fprintf_chk
.LBE396:
.LBE395:
.LBB397:
.LBB312:
	movq	%rbp, %rdi
	movl	$.LC36, %edx
	movl	$1, %esi
	xorl	%eax, %eax
	call	__fprintf_chk
.LBE312:
.LBE397:
.LBB398:
.LBB316:
	movl	$.LC37, %edx
	movl	$1, %esi
	movq	%rbp, %rdi
	xorl	%eax, %eax
	call	__fprintf_chk
	jmp	.L107
.LVL187:
.L150:
.LBE316:
.LBE398:
.LBB399:
.LBB388:
.LBB389:
	movl	%r9d, (%rsp)
	xorl	%eax, %eax
	movl	%ecx, %r9d
	movq	%r15, %r8
	movl	$.LC28, %edx
	movl	$1, %esi
.LVL188:
	movq	%rbp, %rdi
.LBE389:
.LBE388:
	.loc 1 1926 0
	addl	$1, %r13d
.LVL189:
.LBB387:
.LBB390:
	.loc 2 98 0
	call	__fprintf_chk
.LVL190:
.LBE390:
.LBE387:
	.loc 1 1926 0
	cmpl	%r13d, nb_relocs(%rip)
	jg	.L151
.LVL191:
.L98:
.LBE399:
.LBB400:
.LBB401:
	.loc 2 98 0
	movl	32(%rsp), %ecx
.LVL192:
	movq	%rbp, %rdi
.LVL193:
	movl	$.LC30, %edx
	movl	$1, %esi
.LVL194:
	xorl	%eax, %eax
	call	__fprintf_chk
.LVL195:
.LBE401:
.LBE400:
.LBB402:
.LBB403:
	movq	%rbp, %rdi
	movl	$.LC31, %edx
	movl	$1, %esi
	xorl	%eax, %eax
	call	__fprintf_chk
.LBE403:
.LBE402:
.LBB404:
.LBB405:
	movl	$.LC32, %edx
	movl	$1, %esi
	movq	%rbp, %rdi
	xorl	%eax, %eax
	call	__fprintf_chk
	jmp	.L112
.LVL196:
.L146:
.LBE405:
.LBE404:
.LBB406:
.LBB341:
.LBB348:
	.loc 1 267 0
	movq	%rcx, %rdx
	movl	$.LC19, %eax
.LVL197:
	jmp	.L76
	.p2align 4,,10
	.p2align 3
.L79:
.LBE348:
.LBE341:
.LBB338:
.LBB339:
	.loc 1 269 0
	addq	$1, %rdx
	.loc 1 267 0
	cmpb	%sil, (%rdx)
	jne	.L152
.LVL198:
.L76:
	.loc 1 270 0
	addq	$1, %rax
	.loc 1 266 0
	movzbl	(%rax), %esi
	testb	%sil, %sil
	jne	.L79
	jmp	.L73
.LVL199:
.L102:
.LBE339:
.LBE338:
.LBE406:
.LBB407:
.LBB391:
.LBB392:
	.loc 2 98 0
	movq	%r15, %r8
	movl	$.LC26, %edx
	movl	$1, %esi
.LVL200:
	movq	%rbp, %rdi
	xorl	%eax, %eax
	call	__fprintf_chk
.LVL201:
	jmp	.L99
.LVL202:
.L103:
.LBE392:
.LBE391:
.LBB393:
.LBB394:
	movq	%r15, %r8
	movl	$.LC27, %edx
	movl	$1, %esi
.LVL203:
	movq	%rbp, %rdi
	xorl	%eax, %eax
	call	__fprintf_chk
.LVL204:
	jmp	.L99
.LVL205:
.L140:
.LBE394:
.LBE393:
.LBE407:
.LBB408:
.LBB409:
	movq	40(%rsp), %rcx
.LVL206:
	movl	%eax, %r9d
	movl	%r14d, %r8d
.LVL207:
	movl	$.LC12, %edx
	movl	$1, %esi
	movq	%rbp, %rdi
.LVL208:
	xorl	%eax, %eax
	addq	$3, %rcx
	call	__fprintf_chk
	jmp	.L112
.LVL209:
.L152:
.LBE409:
.LBE408:
.LBB410:
.LBB349:
.LBB340:
	.loc 1 267 0
	movq	%rcx, %rdx
	movl	$.LC4, %eax
.LVL210:
	jmp	.L78
	.p2align 4,,10
	.p2align 3
.L80:
.LBE340:
.LBE349:
.LBB350:
.LBB351:
	.loc 1 269 0
	addq	$1, %rdx
	.loc 1 267 0
	cmpb	%sil, (%rdx)
	jne	.L74
.LVL211:
.L78:
	.loc 1 270 0
	addq	$1, %rax
	.loc 1 266 0
	movzbl	(%rax), %esi
	testb	%sil, %sil
	jne	.L80
	jmp	.L73
.LVL212:
.L74:
.LBE351:
.LBE350:
.LBB352:
.LBB353:
	.loc 2 98 0
	movl	$.LC20, %edx
.LVL213:
	movl	$1, %esi
	movq	%rbp, %rdi
	xorl	%eax, %eax
.LVL214:
	call	__fprintf_chk
.LVL215:
	jmp	.L73
.LVL216:
.L136:
.LBE353:
.LBE352:
.LBE410:
.LBB411:
	.loc 1 1473 0
	movq	%rdi, %rsi
.LVL217:
	xorl	%eax, %eax
	movl	$.LC8, %edi
.LVL218:
	call	error
.LVL219:
.L138:
.LBE411:
.LBB412:
	.loc 1 1698 0
	movq	40(%rsp), %rsi
	movl	$.LC10, %edi
	xorl	%eax, %eax
.LVL220:
	call	error
.LVL221:
.L147:
.LBE412:
.LBB413:
.LBB383:
	.loc 1 1806 0
	movl	$.LC23, %edi
.LVL222:
	xorl	%eax, %eax
.LVL223:
	call	error
.LVL224:
.L51:
.LBE383:
.LBE413:
	.loc 1 1705 0
	xorl	%r14d, %r14d
.LVL225:
	xorl	%eax, %eax
.LVL226:
	jmp	.L114
.LVL227:
.L144:
	.loc 1 2634 0
	call	__stack_chk_fail
.LVL228:
.L49:
.LBB414:
	.loc 1 1477 0
	movq	40(%rsp), %rsi
.LVL229:
	movl	$.LC9, %edi
.LVL230:
	xorl	%eax, %eax
	call	error
.LVL231:
.LBE414:
	.cfi_endproc
.LFE171:
	.size	gen_code, .-gen_code
	.section	.rodata.str1.1
.LC41:
	.string	"DEF(end, 0, 0)\n"
.LC42:
	.string	"DEF(nop, 0, 0)\n"
.LC43:
	.string	"DEF(nop1, 1, 0)\n"
.LC44:
	.string	"DEF(nop2, 2, 0)\n"
.LC45:
	.string	"DEF(nop3, 3, 0)\n"
.LC46:
	.string	"op_"
.LC47:
	.string	"#include \"dyngen-op.h\"\n"
	.section	.rodata.str1.8
	.align 8
.LC48:
	.string	"invalid section for opcode (0x%x)"
	.align 8
.LC49:
	.ascii	"int dyngen_code(uint8_t *gen_cod"
	.string	"e_buf,\n                uint16_t *label_offsets, uint16_t *jmp_offsets,\n                const uint16_t *opc_buf, const uint32_t *opparam_buf, const long *gen_labels)\n{\n    uint8_t *gen_code_ptr;\n    const uint16_t *opc_ptr;\n    const uint32_t *opparam_ptr;\n"
	.align 8
.LC50:
	.string	"\n    gen_code_ptr = gen_code_buf;\n    opc_ptr = opc_buf;\n    opparam_ptr = opparam_buf;\n"
	.section	.rodata.str1.1
.LC51:
	.string	"    for(;;) {\n"
.LC52:
	.string	"        switch(*opc_ptr++) {\n"
	.section	.rodata.str1.8
	.align 8
.LC53:
	.ascii	"        case INDEX_op_nop:\n            break;\n        case"
	.ascii	" INDEX_op_nop"
	.string	"1:\n            opparam_ptr++;\n            break;\n        case INDEX_op_nop2:\n            opparam_ptr += 2;\n            break;\n        case INDEX_op_nop3:\n            opparam_ptr += 3;\n            break;\n        default:\n            goto the_end;\n        }\n"
	.section	.rodata.str1.1
.LC54:
	.string	"    }\n the_end:\n"
	.section	.rodata.str1.8
	.align 8
.LC55:
	.string	"flush_icache_range((unsigned long)gen_code_buf, (unsigned long)gen_code_ptr);\n"
	.align 8
.LC56:
	.string	"return gen_code_ptr -  gen_code_buf;\n"
	.text
	.p2align 4,,15
.globl gen_file
	.type	gen_file, @function
gen_file:
.LFB172:
	.loc 1 2637 0
	.cfi_startproc
.LVL232:
	pushq	%r12
.LCFI11:
	.cfi_def_cfa_offset 16
	.loc 1 2641 0
	cmpl	$2, %esi
	.loc 1 2637 0
	pushq	%rbp
.LCFI12:
	.cfi_def_cfa_offset 24
	pushq	%rbx
.LCFI13:
	.cfi_def_cfa_offset 32
	.loc 1 2637 0
	movq	%rdi, %rbx
	.cfi_offset 3, -32
	.cfi_offset 6, -24
	.cfi_offset 12, -16
	.loc 1 2641 0
	je	.L183
.LVL233:
	.loc 1 2654 0
	testl	%esi, %esi
	jne	.L161
.LBB415:
.LBB416:
	.loc 2 98 0
	xorl	%eax, %eax
	movl	$.LC47, %edx
	movb	$1, %sil
.LVL234:
	call	__fprintf_chk
.LBE416:
.LBE415:
	.loc 1 2657 0
	movl	nb_syms(%rip), %r8d
	movq	symtab(%rip), %rbp
.LVL235:
	testl	%r8d, %r8d
	jle	.L155
	xorl	%r12d, %r12d
.LVL236:
	.p2align 4,,10
	.p2align 3
.L166:
.LBB417:
.LBB418:
.LBB419:
	.loc 1 474 0
	mov	(%rbp), %edi
.LVL237:
.LBE419:
.LBE418:
.LBB421:
.LBB422:
	.loc 1 267 0
	movl	$.LC46, %eax
.LBE422:
.LBE421:
.LBB424:
.LBB420:
	.loc 1 474 0
	addq	strtab(%rip), %rdi
.LBE420:
.LBE424:
.LBB425:
.LBB423:
	.loc 1 267 0
	cmpb	$111, (%rdi)
	movq	%rdi, %rdx
	je	.L163
.LVL238:
	jmp	.L162
	.p2align 4,,10
	.p2align 3
.L164:
	.loc 1 269 0
	addq	$1, %rdx
	.loc 1 267 0
	cmpb	%cl, (%rdx)
	jne	.L162
.LVL239:
.L163:
	.loc 1 270 0
	addq	$1, %rax
	.loc 1 266 0
	movzbl	(%rax), %ecx
	testb	%cl, %cl
	jne	.L164
.LBE423:
.LBE425:
	.loc 1 2662 0
	movzwl	6(%rbp), %esi
	cmpl	text_shndx(%rip), %esi
	jne	.L175
	.loc 1 2665 0
	movq	16(%rbp), %rdx
.LVL240:
	movq	8(%rbp), %rsi
	xorl	%r8d, %r8d
	movq	%rbx, %rcx
	call	gen_code
.LVL241:
.L162:
.LBE417:
	.loc 1 2657 0
	addl	$1, %r12d
.LVL242:
	cmpl	%r12d, nb_syms(%rip)
	jle	.L155
	addq	$24, %rbp
	jmp	.L166
.LVL243:
.L161:
.LBB426:
.LBB427:
	.loc 2 98 0
	movl	$.LC49, %edx
	movl	$1, %esi
.LVL244:
	xorl	%eax, %eax
	call	__fprintf_chk
.LBE427:
.LBE426:
.LBB428:
.LBB429:
	movl	$.LC50, %edx
	movl	$1, %esi
	movq	%rbx, %rdi
	xorl	%eax, %eax
	call	__fprintf_chk
.LBE429:
.LBE428:
.LBB430:
.LBB431:
	movl	$.LC51, %edx
	movl	$1, %esi
	movq	%rbx, %rdi
	xorl	%eax, %eax
	call	__fprintf_chk
.LBE431:
.LBE430:
.LBB432:
.LBB433:
	movq	%rbx, %rdi
	xorl	%eax, %eax
	movl	$.LC52, %edx
	movl	$1, %esi
	call	__fprintf_chk
.LBE433:
.LBE432:
	.loc 1 2819 0
	movl	nb_syms(%rip), %edi
	movq	symtab(%rip), %rbp
.LVL245:
	testl	%edi, %edi
	jle	.L167
	xorl	%r12d, %r12d
.LVL246:
	.p2align 4,,10
	.p2align 3
.L172:
.LBB434:
.LBB440:
.LBB441:
	.loc 1 474 0
	mov	(%rbp), %edi
.LVL247:
.LBE441:
.LBE440:
.LBB437:
.LBB438:
	.loc 1 267 0
	movl	$.LC46, %eax
.LBE438:
.LBE437:
.LBB436:
.LBB442:
	.loc 1 474 0
	addq	strtab(%rip), %rdi
.LBE442:
.LBE436:
.LBB435:
.LBB439:
	.loc 1 267 0
	cmpb	$111, (%rdi)
	movq	%rdi, %rdx
	je	.L169
.LVL248:
	jmp	.L168
	.p2align 4,,10
	.p2align 3
.L170:
	.loc 1 269 0
	addq	$1, %rdx
	.loc 1 267 0
	cmpb	%cl, (%rdx)
	jne	.L168
.LVL249:
.L169:
	.loc 1 270 0
	addq	$1, %rax
	.loc 1 266 0
	movzbl	(%rax), %ecx
	testb	%cl, %cl
	jne	.L170
.LBE439:
.LBE435:
	.loc 1 2828 0
	movzwl	6(%rbp), %esi
	cmpl	text_shndx(%rip), %esi
	jne	.L175
	.loc 1 2831 0
	movq	16(%rbp), %rdx
.LVL250:
	movq	8(%rbp), %rsi
	movl	$1, %r8d
	movq	%rbx, %rcx
	call	gen_code
.LVL251:
.L168:
.LBE434:
	.loc 1 2819 0
	addl	$1, %r12d
.LVL252:
	cmpl	%r12d, nb_syms(%rip)
	jle	.L167
	addq	$24, %rbp
	jmp	.L172
.L167:
.LBB443:
.LBB444:
	.loc 2 98 0
	movl	$.LC53, %edx
.LVL253:
	movl	$1, %esi
	movq	%rbx, %rdi
.LVL254:
	xorl	%eax, %eax
.LVL255:
	call	__fprintf_chk
.LBE444:
.LBE443:
.LBB445:
.LBB446:
	movl	$.LC54, %edx
	movl	$1, %esi
	movq	%rbx, %rdi
	xorl	%eax, %eax
	call	__fprintf_chk
.LBE446:
.LBE445:
.LBB447:
.LBB448:
	movl	$.LC55, %edx
	movl	$1, %esi
	movq	%rbx, %rdi
	xorl	%eax, %eax
	call	__fprintf_chk
.LBE448:
.LBE447:
.LBB449:
.LBB450:
	movl	$.LC56, %edx
	movl	$1, %esi
	movq	%rbx, %rdi
	xorl	%eax, %eax
	call	__fprintf_chk
.LBE450:
.LBE449:
.LBB451:
.LBB452:
	movl	$.LC40, %edx
	movl	$1, %esi
	movq	%rbx, %rdi
	xorl	%eax, %eax
	call	__fprintf_chk
.LVL256:
.L155:
.LBE452:
.LBE451:
	.loc 1 2882 0
	popq	%rbx
.LVL257:
	popq	%rbp
.LVL258:
	xorl	%eax, %eax
.LVL259:
	popq	%r12
.LVL260:
	ret
.LVL261:
.L183:
.LBB453:
.LBB454:
	.loc 2 98 0
	movl	$.LC41, %edx
	movb	$1, %sil
.LVL262:
	xorl	%eax, %eax
	call	__fprintf_chk
.LBE454:
.LBE453:
.LBB455:
.LBB456:
	movl	$.LC42, %edx
	movl	$1, %esi
	movq	%rbx, %rdi
	xorl	%eax, %eax
	call	__fprintf_chk
.LBE456:
.LBE455:
.LBB457:
.LBB458:
	movl	$.LC43, %edx
	movl	$1, %esi
	movq	%rbx, %rdi
	xorl	%eax, %eax
	call	__fprintf_chk
.LBE458:
.LBE457:
.LBB459:
.LBB460:
	movl	$.LC44, %edx
	movl	$1, %esi
	movq	%rbx, %rdi
	xorl	%eax, %eax
	call	__fprintf_chk
.LBE460:
.LBE459:
.LBB461:
.LBB462:
	xorl	%eax, %eax
	movl	$.LC45, %edx
	movl	$1, %esi
	movq	%rbx, %rdi
	call	__fprintf_chk
.LBE462:
.LBE461:
	.loc 1 2647 0
	movl	nb_syms(%rip), %r9d
	movq	symtab(%rip), %rbp
.LVL263:
	testl	%r9d, %r9d
	jle	.L155
	xorl	%r12d, %r12d
.LVL264:
	.p2align 4,,10
	.p2align 3
.L160:
.LBB463:
.LBB464:
.LBB465:
	.loc 1 474 0
	mov	(%rbp), %edi
.LVL265:
.LBE465:
.LBE464:
.LBB467:
.LBB468:
	.loc 1 267 0
	movl	$.LC46, %eax
.LBE468:
.LBE467:
.LBB470:
.LBB466:
	.loc 1 474 0
	addq	strtab(%rip), %rdi
.LBE466:
.LBE470:
.LBB471:
.LBB469:
	.loc 1 267 0
	cmpb	$111, (%rdi)
	movq	%rdi, %rdx
	je	.L157
.LVL266:
	jmp	.L156
	.p2align 4,,10
	.p2align 3
.L158:
	.loc 1 269 0
	addq	$1, %rdx
	.loc 1 267 0
	cmpb	%cl, (%rdx)
	jne	.L156
.LVL267:
.L157:
	.loc 1 270 0
	addq	$1, %rax
	.loc 1 266 0
	movzbl	(%rax), %ecx
	testb	%cl, %cl
	jne	.L158
.LBE469:
.LBE471:
	.loc 1 2651 0
	movq	16(%rbp), %rdx
.LVL268:
	movq	8(%rbp), %rsi
	movl	$2, %r8d
	movq	%rbx, %rcx
	call	gen_code
.LVL269:
.L156:
.LBE463:
	.loc 1 2647 0
	addl	$1, %r12d
.LVL270:
	cmpl	%r12d, nb_syms(%rip)
	jle	.L155
	addq	$24, %rbp
	jmp	.L160
.LVL271:
.L175:
.LBB472:
	.loc 1 2829 0
	movl	$.LC48, %edi
	xorl	%eax, %eax
.LVL272:
	call	error
.LVL273:
.LBE472:
	.cfi_endproc
.LFE172:
	.size	gen_file, .-gen_file
	.p2align 4,,15
.globl put32
	.type	put32, @function
put32:
.LFB158:
	.loc 1 345 0
	.cfi_startproc
.LVL274:
	.loc 1 346 0
	movl	do_swap(%rip), %r10d
	testl	%r10d, %r10d
	je	.L185
.LBB473:
.LBB474:
	.file 3 "bswap.h"
	.loc 3 53 0
#APP
# 53 "bswap.h" 1
	bswap %esi
# 0 "" 2
.LVL275:
#NO_APP
.L185:
.LBE474:
.LBE473:
	.loc 1 348 0
	movl	%esi, (%rdi)
	.loc 1 349 0
	ret
	.cfi_endproc
.LFE158:
	.size	put32, .-put32
	.p2align 4,,15
.globl get32
	.type	get32, @function
get32:
.LFB156:
	.loc 1 329 0
	.cfi_startproc
.LVL276:
	.loc 1 332 0
	movl	do_swap(%rip), %r11d
	.loc 1 331 0
	movl	(%rdi), %eax
.LVL277:
	.loc 1 332 0
	testl	%r11d, %r11d
	je	.L188
.LBB475:
.LBB476:
	.loc 3 53 0
#APP
# 53 "bswap.h" 1
	bswap %eax
# 0 "" 2
#NO_APP
.L188:
.LVL278:
.LBE476:
.LBE475:
	.loc 1 335 0
	rep
	ret
	.cfi_endproc
.LFE156:
	.size	get32, .-get32
	.p2align 4,,15
.globl swab32ss
	.type	swab32ss, @function
swab32ss:
.LFB152:
	.loc 1 305 0
	.cfi_startproc
.LVL279:
.LBB477:
.LBB478:
	.loc 3 53 0
	movl	(%rdi), %eax
.LVL280:
#APP
# 53 "bswap.h" 1
	bswap %eax
# 0 "" 2
#NO_APP
.LBE478:
.LBE477:
	.loc 1 306 0
	movl	%eax, (%rdi)
	.loc 1 307 0
	ret
	.cfi_endproc
.LFE152:
	.size	swab32ss, .-swab32ss
	.p2align 4,,15
.globl swab32s
	.type	swab32s, @function
swab32s:
.LFB151:
	.loc 1 300 0
	.cfi_startproc
.LVL281:
.LBB479:
.LBB480:
	.loc 3 53 0
	movl	(%rdi), %eax
.LVL282:
#APP
# 53 "bswap.h" 1
	bswap %eax
# 0 "" 2
#NO_APP
.LBE480:
.LBE479:
	.loc 1 301 0
	movl	%eax, (%rdi)
	.loc 1 302 0
	ret
	.cfi_endproc
.LFE151:
	.size	swab32s, .-swab32s
	.p2align 4,,15
.globl put16
	.type	put16, @function
put16:
.LFB157:
	.loc 1 338 0
	.cfi_startproc
.LVL283:
	.loc 1 339 0
	movl	do_swap(%rip), %eax
	testl	%eax, %eax
	je	.L195
.LBB481:
.LBB482:
	.loc 3 48 0
#APP
# 48 "bswap.h" 1
	rorw $8, %si
# 0 "" 2
.LVL284:
#NO_APP
.L195:
.LBE482:
.LBE481:
	.loc 1 341 0
	movw	%si, (%rdi)
	.loc 1 342 0
	ret
	.cfi_endproc
.LFE157:
	.size	put16, .-put16
	.p2align 4,,15
.globl get16
	.type	get16, @function
get16:
.LFB155:
	.loc 1 320 0
	.cfi_startproc
.LVL285:
	.loc 1 323 0
	movl	do_swap(%rip), %edx
	.loc 1 322 0
	movzwl	(%rdi), %eax
.LVL286:
	.loc 1 323 0
	testl	%edx, %edx
	je	.L198
.LBB483:
.LBB484:
	.loc 3 48 0
#APP
# 48 "bswap.h" 1
	rorw $8, %ax
# 0 "" 2
#NO_APP
.L198:
.LVL287:
.LBE484:
.LBE483:
	.loc 1 326 0
	rep
	ret
	.cfi_endproc
.LFE155:
	.size	get16, .-get16
	.p2align 4,,15
.globl swab16s
	.type	swab16s, @function
swab16s:
.LFB150:
	.loc 1 295 0
	.cfi_startproc
.LVL288:
.LBB485:
.LBB486:
	.loc 3 48 0
	movzwl	(%rdi), %eax
.LVL289:
#APP
# 48 "bswap.h" 1
	rorw $8, %ax
# 0 "" 2
#NO_APP
.LBE486:
.LBE485:
	.loc 1 296 0
	movw	%ax, (%rdi)
	.loc 1 297 0
	ret
	.cfi_endproc
.LFE150:
	.size	swab16s, .-swab16s
	.p2align 4,,15
.globl swab64ss
	.type	swab64ss, @function
swab64ss:
.LFB154:
	.loc 1 315 0
	.cfi_startproc
.LVL290:
.LBB487:
.LBB488:
	.loc 3 58 0
	movq	(%rdi), %rax
.LVL291:
#APP
# 58 "bswap.h" 1
	bswap %rax
# 0 "" 2
#NO_APP
.LBE488:
.LBE487:
	.loc 1 316 0
	movq	%rax, (%rdi)
	.loc 1 317 0
	ret
	.cfi_endproc
.LFE154:
	.size	swab64ss, .-swab64ss
	.p2align 4,,15
.globl swab64s
	.type	swab64s, @function
swab64s:
.LFB153:
	.loc 1 310 0
	.cfi_startproc
.LVL292:
.LBB489:
.LBB490:
	.loc 3 58 0
	movq	(%rdi), %rax
.LVL293:
#APP
# 58 "bswap.h" 1
	bswap %rax
# 0 "" 2
#NO_APP
.LBE490:
.LBE489:
	.loc 1 311 0
	movq	%rax, (%rdi)
	.loc 1 312 0
	ret
	.cfi_endproc
.LFE153:
	.size	swab64s, .-swab64s
	.p2align 4,,15
.globl elf_swap_rel
	.type	elf_swap_rel, @function
elf_swap_rel:
.LFB163:
	.loc 1 423 0
	.cfi_startproc
.LVL294:
	pushq	%rbx
.LCFI14:
	.cfi_def_cfa_offset 16
	.loc 1 423 0
	movq	%rdi, %rbx
	.cfi_offset 3, -16
	.loc 1 424 0
	call	swab64s
.LVL295:
	.loc 1 425 0
	leaq	8(%rbx), %rdi
	call	swab64s
	.loc 1 427 0
	leaq	16(%rbx), %rdi
	.loc 1 429 0
	popq	%rbx
.LVL296:
	.loc 1 427 0
	jmp	swab64ss
	.cfi_endproc
.LFE163:
	.size	elf_swap_rel, .-elf_swap_rel
	.p2align 4,,15
.globl elf_swap_phdr
	.type	elf_swap_phdr, @function
elf_swap_phdr:
.LFB162:
	.loc 1 411 0
	.cfi_startproc
.LVL297:
	pushq	%rbx
.LCFI15:
	.cfi_def_cfa_offset 16
	.loc 1 411 0
	movq	%rdi, %rbx
	.cfi_offset 3, -16
.LBB491:
.LBB492:
.LBB493:
.LBB494:
	.loc 3 53 0
	movl	(%rdi), %eax
.LVL298:
#APP
# 53 "bswap.h" 1
	bswap %eax
# 0 "" 2
#NO_APP
.LBE494:
.LBE493:
	.loc 1 301 0
	movl	%eax, (%rdi)
.LBE492:
.LBE491:
	.loc 1 413 0
	leaq	8(%rdi), %rdi
.LVL299:
	call	swab64s
.LVL300:
	.loc 1 414 0
	leaq	16(%rbx), %rdi
	call	swab64s
	.loc 1 415 0
	leaq	24(%rbx), %rdi
	call	swab64s
	.loc 1 416 0
	leaq	32(%rbx), %rdi
	call	swab64s
	.loc 1 417 0
	leaq	40(%rbx), %rdi
	call	swab64s
.LBB495:
.LBB496:
.LBB497:
.LBB498:
	.loc 3 53 0
	movl	4(%rbx), %eax
.LVL301:
.LBE498:
.LBE497:
.LBE496:
.LBE495:
	.loc 1 419 0
	leaq	48(%rbx), %rdi
.LBB502:
.LBB501:
.LBB500:
.LBB499:
	.loc 3 53 0
#APP
# 53 "bswap.h" 1
	bswap %eax
# 0 "" 2
#NO_APP
.LBE499:
.LBE500:
	.loc 1 301 0
	movl	%eax, 4(%rbx)
.LBE501:
.LBE502:
	.loc 1 420 0
	popq	%rbx
.LVL302:
	.loc 1 419 0
	jmp	swab64s
.LVL303:
	.cfi_endproc
.LFE162:
	.size	elf_swap_phdr, .-elf_swap_phdr
	.p2align 4,,15
.globl elf_swap_shdr
	.type	elf_swap_shdr, @function
elf_swap_shdr:
.LFB161:
	.loc 1 397 0
	.cfi_startproc
.LVL304:
	pushq	%rbx
.LCFI16:
	.cfi_def_cfa_offset 16
	.loc 1 397 0
	movq	%rdi, %rbx
	.cfi_offset 3, -16
.LBB503:
.LBB504:
.LBB505:
.LBB506:
	.loc 3 53 0
	movl	(%rdi), %eax
.LVL305:
#APP
# 53 "bswap.h" 1
	bswap %eax
# 0 "" 2
#NO_APP
.LBE506:
.LBE505:
	.loc 1 301 0
	movl	%eax, (%rdi)
.LBE504:
.LBE503:
.LBB507:
.LBB508:
.LBB509:
.LBB510:
	.loc 3 53 0
	movl	4(%rdi), %eax
.LVL306:
#APP
# 53 "bswap.h" 1
	bswap %eax
# 0 "" 2
#NO_APP
.LBE510:
.LBE509:
	.loc 1 301 0
	movl	%eax, 4(%rdi)
.LBE508:
.LBE507:
	.loc 1 400 0
	leaq	8(%rdi), %rdi
.LVL307:
	call	swab64s
.LVL308:
	.loc 1 401 0
	leaq	16(%rbx), %rdi
	call	swab64s
	.loc 1 402 0
	leaq	24(%rbx), %rdi
	call	swab64s
	.loc 1 403 0
	leaq	32(%rbx), %rdi
	call	swab64s
	.loc 1 406 0
	leaq	48(%rbx), %rdi
.LBB511:
.LBB512:
.LBB513:
.LBB514:
	.loc 3 53 0
	movl	40(%rbx), %eax
.LVL309:
#APP
# 53 "bswap.h" 1
	bswap %eax
# 0 "" 2
#NO_APP
.LBE514:
.LBE513:
	.loc 1 301 0
	movl	%eax, 40(%rbx)
.LBE512:
.LBE511:
.LBB515:
.LBB516:
.LBB517:
.LBB518:
	.loc 3 53 0
	movl	44(%rbx), %eax
.LVL310:
#APP
# 53 "bswap.h" 1
	bswap %eax
# 0 "" 2
#NO_APP
.LBE518:
.LBE517:
	.loc 1 301 0
	movl	%eax, 44(%rbx)
.LBE516:
.LBE515:
	.loc 1 406 0
	call	swab64s
.LVL311:
	.loc 1 407 0
	leaq	56(%rbx), %rdi
	.loc 1 408 0
	popq	%rbx
.LVL312:
	.loc 1 407 0
	jmp	swab64s
	.cfi_endproc
.LFE161:
	.size	elf_swap_shdr, .-elf_swap_shdr
	.p2align 4,,15
.globl elf_swap_ehdr
	.type	elf_swap_ehdr, @function
elf_swap_ehdr:
.LFB160:
	.loc 1 380 0
	.cfi_startproc
.LVL313:
	pushq	%rbx
.LCFI17:
	.cfi_def_cfa_offset 16
	.loc 1 380 0
	movq	%rdi, %rbx
	.cfi_offset 3, -16
.LBB519:
.LBB520:
.LBB521:
.LBB522:
	.loc 3 48 0
	movzwl	16(%rdi), %eax
.LVL314:
#APP
# 48 "bswap.h" 1
	rorw $8, %ax
# 0 "" 2
#NO_APP
.LBE522:
.LBE521:
	.loc 1 296 0
	movw	%ax, 16(%rdi)
.LBE520:
.LBE519:
.LBB523:
.LBB524:
.LBB525:
.LBB526:
	.loc 3 48 0
	movzwl	18(%rdi), %eax
.LVL315:
#APP
# 48 "bswap.h" 1
	rorw $8, %ax
# 0 "" 2
#NO_APP
.LBE526:
.LBE525:
	.loc 1 296 0
	movw	%ax, 18(%rdi)
.LBE524:
.LBE523:
.LBB527:
.LBB528:
.LBB529:
.LBB530:
	.loc 3 53 0
	movl	20(%rdi), %eax
.LVL316:
#APP
# 53 "bswap.h" 1
	bswap %eax
# 0 "" 2
#NO_APP
.LBE530:
.LBE529:
	.loc 1 301 0
	movl	%eax, 20(%rdi)
.LBE528:
.LBE527:
	.loc 1 384 0
	leaq	24(%rdi), %rdi
.LVL317:
	call	swab64s
.LVL318:
	.loc 1 385 0
	leaq	32(%rbx), %rdi
	call	swab64s
	.loc 1 386 0
	leaq	40(%rbx), %rdi
	call	swab64s
.LBB531:
.LBB532:
.LBB533:
.LBB534:
	.loc 3 53 0
	movl	48(%rbx), %eax
.LVL319:
#APP
# 53 "bswap.h" 1
	bswap %eax
# 0 "" 2
#NO_APP
.LBE534:
.LBE533:
	.loc 1 301 0
	movl	%eax, 48(%rbx)
.LBE532:
.LBE531:
.LBB535:
.LBB536:
.LBB537:
.LBB538:
	.loc 3 48 0
	movzwl	52(%rbx), %eax
.LVL320:
#APP
# 48 "bswap.h" 1
	rorw $8, %ax
# 0 "" 2
#NO_APP
.LBE538:
.LBE537:
	.loc 1 296 0
	movw	%ax, 52(%rbx)
.LBE536:
.LBE535:
.LBB539:
.LBB540:
.LBB541:
.LBB542:
	.loc 3 48 0
	movzwl	54(%rbx), %eax
.LVL321:
#APP
# 48 "bswap.h" 1
	rorw $8, %ax
# 0 "" 2
#NO_APP
.LBE542:
.LBE541:
	.loc 1 296 0
	movw	%ax, 54(%rbx)
.LBE540:
.LBE539:
.LBB543:
.LBB544:
.LBB545:
.LBB546:
	.loc 3 48 0
	movzwl	56(%rbx), %eax
.LVL322:
#APP
# 48 "bswap.h" 1
	rorw $8, %ax
# 0 "" 2
#NO_APP
.LBE546:
.LBE545:
	.loc 1 296 0
	movw	%ax, 56(%rbx)
.LBE544:
.LBE543:
.LBB547:
.LBB548:
.LBB549:
.LBB550:
	.loc 3 48 0
	movzwl	58(%rbx), %eax
.LVL323:
#APP
# 48 "bswap.h" 1
	rorw $8, %ax
# 0 "" 2
#NO_APP
.LBE550:
.LBE549:
	.loc 1 296 0
	movw	%ax, 58(%rbx)
.LBE548:
.LBE547:
.LBB551:
.LBB552:
.LBB553:
.LBB554:
	.loc 3 48 0
	movzwl	60(%rbx), %eax
.LVL324:
#APP
# 48 "bswap.h" 1
	rorw $8, %ax
# 0 "" 2
#NO_APP
.LBE554:
.LBE553:
	.loc 1 296 0
	movw	%ax, 60(%rbx)
.LBE552:
.LBE551:
.LBB555:
.LBB556:
.LBB557:
.LBB558:
	.loc 3 48 0
	movzwl	62(%rbx), %eax
.LVL325:
#APP
# 48 "bswap.h" 1
	rorw $8, %ax
# 0 "" 2
#NO_APP
.LBE558:
.LBE557:
	.loc 1 296 0
	movw	%ax, 62(%rbx)
.LBE556:
.LBE555:
	.loc 1 394 0
	popq	%rbx
.LVL326:
	ret
	.cfi_endproc
.LFE160:
	.size	elf_swap_ehdr, .-elf_swap_ehdr
	.p2align 4,,15
	.type	load_data, @function
load_data:
.LFB147:
	.loc 1 247 0
	.cfi_startproc
.LVL327:
	movq	%rbp, -24(%rsp)
	.loc 1 250 0
	mov	%edx, %ebp
	.cfi_offset 6, -32
	.loc 1 247 0
	movq	%rbx, -32(%rsp)
	movq	%r12, -16(%rsp)
	movq	%r13, -8(%rsp)
	movl	%edi, %r12d
	.cfi_offset 13, -16
	.cfi_offset 12, -24
	.cfi_offset 3, -40
	subq	$40, %rsp
.LCFI18:
	.cfi_def_cfa_offset 48
	.loc 1 250 0
	movq	%rbp, %rdi
.LVL328:
	.loc 1 247 0
	movq	%rsi, %r13
	.loc 1 250 0
	call	malloc
.LVL329:
	movq	%rax, %rbx
	.loc 1 251 0
	xorl	%eax, %eax
	testq	%rbx, %rbx
	je	.L216
	.loc 1 253 0
	xorl	%edx, %edx
	movq	%r13, %rsi
	movl	%r12d, %edi
	call	lseek64
.LBB559:
.LBB560:
	.file 4 "/usr/include/bits/unistd.h"
	.loc 4 45 0
	movq	%rbp, %rdx
	movq	%rbx, %rsi
	movl	%r12d, %edi
	call	read
	movq	%rax, %rdx
.LBE560:
.LBE559:
	.loc 1 254 0
	movq	%rbx, %rax
	cmpq	%rdx, %rbp
	jne	.L219
.L216:
	.loc 1 259 0
	movq	8(%rsp), %rbx
	movq	16(%rsp), %rbp
	movq	24(%rsp), %r12
.LVL330:
	movq	32(%rsp), %r13
.LVL331:
	addq	$40, %rsp
	ret
.LVL332:
	.p2align 4,,10
	.p2align 3
.L219:
	.loc 1 255 0
	movq	%rbx, %rdi
	call	free
	xorl	%eax, %eax
	.loc 1 256 0
	jmp	.L216
	.cfi_endproc
.LFE147:
	.size	load_data, .-load_data
	.p2align 4,,15
.globl find_elf_section
	.type	find_elf_section, @function
find_elf_section:
.LFB164:
	.loc 1 433 0
	.cfi_startproc
.LVL333:
	pushq	%r15
.LCFI19:
	.cfi_def_cfa_offset 16
	movq	%rcx, %r15
	.cfi_offset 15, -16
	pushq	%r14
.LCFI20:
	.cfi_def_cfa_offset 24
	pushq	%r13
.LCFI21:
	.cfi_def_cfa_offset 32
	pushq	%r12
.LCFI22:
	.cfi_def_cfa_offset 40
	pushq	%rbp
.LCFI23:
	.cfi_def_cfa_offset 48
	movq	%rdx, %rbp
	.cfi_offset 6, -48
	.cfi_offset 12, -40
	.cfi_offset 13, -32
	.cfi_offset 14, -24
	pushq	%rbx
.LCFI24:
	.cfi_def_cfa_offset 56
	movl	%esi, %ebx
	.cfi_offset 3, -56
	subq	$8, %rsp
.LCFI25:
	.cfi_def_cfa_offset 64
	.loc 1 438 0
	testl	%esi, %esi
	jle	.L221
.LVL334:
	movq	%rdi, %r12
	xorl	%r13d, %r13d
.LVL335:
	.p2align 4,,10
	.p2align 3
.L224:
	.loc 1 440 0
	movl	(%r12), %edi
.LVL336:
	.loc 1 438 0
	movq	%r12, %r14
	.loc 1 440 0
	testl	%edi, %edi
	je	.L222
.LVL337:
.LBB561:
	.loc 1 443 0
	mov	%edi, %edi
	movq	%r15, %rsi
.LVL338:
	leaq	(%rbp,%rdi), %rdi
	call	strcmp
.LBE561:
	testl	%eax, %eax
	je	.L223
.LVL339:
.L222:
	.loc 1 438 0
	addl	$1, %r13d
.LVL340:
	addq	$64, %r12
	cmpl	%r13d, %ebx
	jg	.L224
.LVL341:
.L221:
	xorl	%r14d, %r14d
.LVL342:
.L223:
	.loc 1 447 0
	addq	$8, %rsp
	movq	%r14, %rax
	popq	%rbx
.LVL343:
	popq	%rbp
.LVL344:
	popq	%r12
	popq	%r13
.LVL345:
	popq	%r14
.LVL346:
	popq	%r15
.LVL347:
	ret
	.cfi_endproc
.LFE164:
	.size	find_elf_section, .-find_elf_section
	.section	.rodata.str1.1
.LC57:
	.string	"can't open file '%s'"
.LC58:
	.string	"unable to read file header"
.LC59:
	.string	"bad ELF header"
.LC60:
	.string	"Unsupported ELF class"
.LC61:
	.string	"ELF object file expected"
.LC62:
	.string	"Invalid ELF version"
	.section	.rodata.str1.8
	.align 8
.LC63:
	.string	"Unsupported CPU (e_machine=%d)"
	.section	.rodata.str1.1
.LC64:
	.string	".text"
.LC65:
	.string	"could not find .text section"
.LC66:
	.string	".symtab"
	.section	.rodata.str1.8
	.align 8
.LC67:
	.string	"could not find .symtab section"
	.text
	.p2align 4,,15
.globl load_object
	.type	load_object, @function
load_object:
.LFB169:
	.loc 1 479 0
	.cfi_startproc
.LVL348:
	pushq	%r15
.LCFI26:
	.cfi_def_cfa_offset 16
.LBB562:
.LBB564:
	.file 5 "/usr/include/bits/fcntl2.h"
	.loc 5 54 0
	xorl	%esi, %esi
	xorl	%eax, %eax
.LBE564:
.LBE562:
	.loc 1 479 0
	pushq	%r14
.LCFI27:
	.cfi_def_cfa_offset 24
	pushq	%r13
.LCFI28:
	.cfi_def_cfa_offset 32
	pushq	%r12
.LCFI29:
	.cfi_def_cfa_offset 40
	pushq	%rbp
.LCFI30:
	.cfi_def_cfa_offset 48
	movq	%rdi, %rbp
	.cfi_offset 6, -48
	.cfi_offset 12, -40
	.cfi_offset 13, -32
	.cfi_offset 14, -24
	.cfi_offset 15, -16
	pushq	%rbx
.LCFI31:
	.cfi_def_cfa_offset 56
	subq	$8, %rsp
.LCFI32:
	.cfi_def_cfa_offset 64
.LBB566:
.LBB563:
	.loc 5 54 0
	.cfi_offset 3, -56
	call	open64
.LVL349:
.LBE563:
.LBE566:
	.loc 1 488 0
	testl	%eax, %eax
.LVL350:
.LBB567:
.LBB565:
	.loc 5 54 0
	movl	%eax, %ebx
.LVL351:
.LBE565:
.LBE567:
	.loc 1 488 0
	js	.L259
.LBB568:
.LBB569:
	.loc 4 45 0
	movl	$64, %edx
	movl	$ehdr, %esi
	movl	%eax, %edi
	call	read
.LBE569:
.LBE568:
	.loc 1 492 0
	cmpq	$64, %rax
	jne	.L260
	.loc 1 496 0
	movabsq	$71776123356184575, %rax
	andq	ehdr(%rip), %rax
	movabsq	$281476156114303, %rdx
	cmpq	%rdx, %rax
	jne	.L261
.LBB570:
.LBB571:
	.loc 1 375 0
	xorl	%eax, %eax
	cmpb	$2, ehdr+5(%rip)
	sete	%al
.LBE571:
.LBE570:
	.loc 1 505 0
	testl	%eax, %eax
	.loc 1 504 0
	movl	%eax, do_swap(%rip)
	.loc 1 505 0
	jne	.L262
.L231:
	.loc 1 507 0
	cmpb	$2, ehdr+4(%rip)
	jne	.L263
	.loc 1 509 0
	cmpw	$1, ehdr+16(%rip)
	jne	.L264
	.loc 1 511 0
	cmpl	$1, ehdr+20(%rip)
	jne	.L265
	.loc 1 513 0
	movzwl	ehdr+18(%rip), %eax
	cmpw	$62, %ax
	jne	.L266
	.loc 1 517 0
	movzwl	ehdr+60(%rip), %edx
	movq	ehdr+40(%rip), %rsi
	movl	%ebx, %edi
	sall	$6, %edx
	call	load_data
	.loc 1 518 0
	movl	do_swap(%rip), %edi
	.loc 1 517 0
	movq	%rax, shdr(%rip)
	.loc 1 518 0
	testl	%edi, %edi
	jne	.L236
	movzwl	ehdr+60(%rip), %edx
.LVL352:
.L237:
	.loc 1 525 0
	movzwl	%dx, %edx
	leaq	0(,%rdx,8), %rdi
	call	malloc
	.file 6 "/usr/include/bits/string3.h"
	.loc 6 85 0
	movzwl	ehdr+60(%rip), %edx
	xorl	%esi, %esi
	movq	%rax, %rdi
	.loc 1 525 0
	movq	%rax, sdata(%rip)
	.loc 6 85 0
	salq	$3, %rdx
	call	memset
	.loc 1 528 0
	cmpw	$0, ehdr+60(%rip)
	je	.L239
	movq	shdr(%rip), %rcx
	xorl	%ebp, %ebp
.LVL353:
	xorl	%r12d, %r12d
.LVL354:
	movq	%rcx, %r8
.LVL355:
	.p2align 4,,10
	.p2align 3
.L241:
	.loc 1 529 0
	leaq	(%rcx,%rbp,8), %rax
	.loc 1 530 0
	cmpl	$8, 4(%rax)
	je	.L240
	.loc 1 531 0
	movq	%rbp, %r13
	addq	sdata(%rip), %r13
	movq	32(%rax), %rdx
	movq	24(%rax), %rsi
	movl	%ebx, %edi
	call	load_data
.LVL356:
	movq	%rax, (%r13)
	movq	shdr(%rip), %rcx
	movq	%rcx, %r8
.LVL357:
.L240:
	.loc 1 528 0
	movzwl	ehdr+60(%rip), %esi
	addl	$1, %r12d
.LVL358:
	addq	$8, %rbp
	cmpl	%r12d, %esi
	jg	.L241
	.loc 1 535 0
	movzwl	ehdr+62(%rip), %edx
	movq	sdata(%rip), %rax
.LVL359:
	.loc 1 538 0
	testl	%esi, %esi
	.loc 1 535 0
	movq	(%rax,%rdx,8), %rbp
.LVL360:
	.loc 1 538 0
	je	.L242
	xorl	%r12d, %r12d
.LVL361:
	xorl	%r13d, %r13d
.LVL362:
	jmp	.L245
.LVL363:
	.p2align 4,,10
	.p2align 3
.L243:
	movzwl	ehdr+60(%rip), %esi
.LVL364:
	addl	$1, %r13d
	addq	$8, %r12
	cmpl	%r13d, %esi
	jle	.L242
	movq	%rcx, %r8
.L245:
	.loc 1 539 0
	leaq	(%rcx,%r12,8), %rsi
.LVL365:
	.loc 1 540 0
	cmpl	$4, 4(%rsi)
	jne	.L243
	.loc 1 541 0
	movq	32(%rsi), %rax
	xorl	%edx, %edx
	divq	56(%rsi)
	.loc 1 542 0
	movl	do_swap(%rip), %esi
.LVL366:
	testl	%esi, %esi
	.loc 1 541 0
	movl	%eax, %edx
	movl	%eax, nb_relocs(%rip)
	.loc 1 542 0
	je	.L243
	.loc 1 543 0
	movq	sdata(%rip), %rax
	testl	%edx, %edx
	movq	(%rax,%r12), %r14
	jle	.L243
	xorl	%r15d, %r15d
.LVL367:
	.p2align 4,,10
	.p2align 3
.L244:
	.loc 1 544 0
	movq	%r14, %rdi
	.loc 1 543 0
	addl	$1, %r15d
.LVL368:
	addq	$24, %r14
	.loc 1 544 0
	call	elf_swap_rel
	.loc 1 543 0
	cmpl	%r15d, nb_relocs(%rip)
	jg	.L244
	movq	shdr(%rip), %rcx
	movq	%rcx, %r8
	jmp	.L243
.LVL369:
.L239:
	.loc 1 535 0
	movzwl	ehdr+62(%rip), %edx
	movq	sdata(%rip), %rax
	xorl	%esi, %esi
	movq	shdr(%rip), %r8
	movq	(%rax,%rdx,8), %rbp
.LVL370:
	.p2align 4,,10
	.p2align 3
.L242:
	.loc 1 550 0
	movl	$.LC64, %ecx
	movq	%rbp, %rdx
	movq	%r8, %rdi
	call	find_elf_section
	.loc 1 551 0
	testq	%rax, %rax
.LVL371:
	je	.L267
	.loc 1 553 0
	movq	shdr(%rip), %rdi
	.loc 1 554 0
	movq	sdata(%rip), %r9
.LBB572:
.LBB574:
	.loc 1 454 0
	movzwl	ehdr+60(%rip), %esi
.LBE574:
.LBE572:
	.loc 1 553 0
	subq	%rdi, %rax
.LVL372:
	sarq	$6, %rax
	movl	%eax, text_shndx(%rip)
	movl	%eax, %r8d
	.loc 1 554 0
	cltq
	movq	(%r9,%rax,8), %rax
.LBB576:
.LBB573:
	.loc 1 454 0
	testl	%esi, %esi
.LBE573:
.LBE576:
	.loc 1 557 0
	movq	$0, relocs(%rip)
	.loc 1 558 0
	movl	$0, nb_relocs(%rip)
	.loc 1 554 0
	movq	%rax, text(%rip)
.LBB577:
.LBB575:
	.loc 1 454 0
	je	.L247
	xorl	%eax, %eax
.LVL373:
	jmp	.L250
.LVL374:
	.p2align 4,,10
	.p2align 3
.L248:
	addl	$1, %eax
.LVL375:
	cmpl	%esi, %eax
	jge	.L247
.L250:
	.loc 1 455 0
	movslq	%eax,%rcx
	movq	%rcx, %rdx
	salq	$6, %rdx
	leaq	(%rdi,%rdx), %r10
	.loc 1 456 0
	cmpl	$4, 4(%r10)
	jne	.L248
	cmpl	%r8d, 44(%r10)
	jne	.L248
.LBE575:
.LBE577:
	.loc 1 560 0
	testl	%eax, %eax
	je	.L247
	.loc 1 561 0
	movq	(%r9,%rcx,8), %rax
.LVL376:
	.loc 1 562 0
	xorl	%edx, %edx
	.loc 1 561 0
	movq	%rax, relocs(%rip)
	.loc 1 562 0
	movq	32(%r10), %rax
	divq	56(%r10)
	movl	%eax, nb_relocs(%rip)
.LVL377:
.L247:
	.loc 1 565 0
	movl	$.LC66, %ecx
	movq	%rbp, %rdx
	call	find_elf_section
.LVL378:
	.loc 1 566 0
	testq	%rax, %rax
.LVL379:
	.loc 1 565 0
	movq	%rax, %rcx
.LVL380:
	.loc 1 566 0
	je	.L268
	.loc 1 570 0
	subq	shdr(%rip), %rax
	movq	sdata(%rip), %rdx
	sarq	$6, %rax
	movq	(%rdx,%rax,8), %rbp
.LVL381:
	movq	%rbp, symtab(%rip)
	.loc 1 571 0
	mov	40(%rcx), %eax
	movq	(%rdx,%rax,8), %rax
	.loc 1 573 0
	movabsq	$-6148914691236517205, %rdx
	.loc 1 571 0
	movq	%rax, strtab(%rip)
	.loc 1 573 0
	movq	32(%rcx), %rax
	.loc 1 574 0
	movl	do_swap(%rip), %ecx
.LVL382:
	.loc 1 573 0
	mulq	%rdx
	shrq	$4, %rdx
	.loc 1 574 0
	testl	%ecx, %ecx
	.loc 1 573 0
	movl	%edx, nb_syms(%rip)
	.loc 1 574 0
	je	.L252
	.loc 1 575 0
	testl	%edx, %edx
	jle	.L252
	xorl	%r12d, %r12d
.LVL383:
	.p2align 4,,10
	.p2align 3
.L253:
	.loc 1 577 0
	leaq	8(%rbp), %rdi
.LBB578:
.LBB579:
.LBB580:
.LBB581:
	.loc 3 53 0
	movl	(%rbp), %eax
.LVL384:
.LBE581:
.LBE580:
.LBE579:
.LBE578:
	.loc 1 575 0
	addl	$1, %r12d
.LVL385:
.LBB585:
.LBB584:
.LBB583:
.LBB582:
	.loc 3 53 0
#APP
# 53 "bswap.h" 1
	bswap %eax
# 0 "" 2
#NO_APP
.LBE582:
.LBE583:
	.loc 1 301 0
	movl	%eax, (%rbp)
.LBE584:
.LBE585:
	.loc 1 577 0
	call	swab64s
.LVL386:
	.loc 1 578 0
	leaq	16(%rbp), %rdi
	call	swab64s
.LBB586:
.LBB587:
.LBB588:
.LBB589:
	.loc 3 48 0
	movzwl	6(%rbp), %eax
.LVL387:
#APP
# 48 "bswap.h" 1
	rorw $8, %ax
# 0 "" 2
#NO_APP
.LBE589:
.LBE588:
	.loc 1 296 0
	movw	%ax, 6(%rbp)
.LBE587:
.LBE586:
	.loc 1 575 0
	addq	$24, %rbp
	cmpl	%r12d, nb_syms(%rip)
	jg	.L253
.LVL388:
.L252:
	.loc 1 582 0
	movl	%ebx, %edi
	call	close
.LVL389:
	.loc 1 584 0
	addq	$8, %rsp
	xorl	%eax, %eax
	popq	%rbx
.LVL390:
	popq	%rbp
.LVL391:
	popq	%r12
.LVL392:
	popq	%r13
.LVL393:
	popq	%r14
.LVL394:
	popq	%r15
.LVL395:
	ret
.LVL396:
	.p2align 4,,10
	.p2align 3
.L236:
	.loc 1 519 0
	movzwl	ehdr+60(%rip), %edx
	testw	%dx, %dx
	je	.L237
	xorl	%r12d, %r12d
	xorl	%ebp, %ebp
.LVL397:
	jmp	.L238
	.p2align 4,,10
	.p2align 3
.L269:
	movq	shdr(%rip), %rax
.L238:
	.loc 1 520 0
	leaq	(%rax,%r12), %rdi
	.loc 1 519 0
	addl	$1, %ebp
	addq	$64, %r12
	.loc 1 520 0
	call	elf_swap_shdr
	.loc 1 519 0
	movzwl	ehdr+60(%rip), %edx
	movzwl	%dx, %eax
	cmpl	%ebp, %eax
	jg	.L269
	jmp	.L237
.LVL398:
	.p2align 4,,10
	.p2align 3
.L262:
	.loc 1 506 0
	movl	$ehdr, %edi
	call	elf_swap_ehdr
	.p2align 4,,3
	jmp	.L231
.L263:
	.loc 1 508 0
	movl	$.LC60, %edi
	xorl	%eax, %eax
	call	error
.LVL399:
.L267:
	.loc 1 552 0
	movl	$.LC65, %edi
	call	error
.LVL400:
.L268:
	.loc 1 567 0
	movl	$.LC67, %edi
	xorl	%eax, %eax
	call	error
.LVL401:
.L261:
	.loc 1 501 0
	movl	$.LC59, %edi
	xorl	%eax, %eax
	call	error
.L260:
	.loc 1 493 0
	movl	$.LC58, %edi
	xorl	%eax, %eax
	call	error
.L259:
	.loc 1 489 0
	movq	%rbp, %rsi
	movl	$.LC57, %edi
	xorl	%eax, %eax
	call	error
.L266:
	.loc 1 514 0
	movzwl	%ax, %esi
	movl	$.LC63, %edi
	xorl	%eax, %eax
	call	error
.L265:
	.loc 1 512 0
	movl	$.LC62, %edi
	xorl	%eax, %eax
	call	error
.L264:
	.loc 1 510 0
	movl	$.LC61, %edi
	xorl	%eax, %eax
	call	error
	.cfi_endproc
.LFE169:
	.size	load_object, .-load_object
	.section	.rodata.str1.1
.LC68:
	.string	"out.c"
.LC69:
	.string	"ho:cg"
.LC70:
	.string	"w"
.LC71:
	.string	"could not open '%s'"
	.text
	.p2align 4,,15
.globl main
	.type	main, @function
main:
.LFB174:
	.loc 1 2896 0
	.cfi_startproc
.LVL402:
	pushq	%r14
.LCFI33:
	.cfi_def_cfa_offset 16
	movl	$2, %r14d
	.cfi_offset 14, -16
	pushq	%r13
.LCFI34:
	.cfi_def_cfa_offset 24
	movl	$.LC68, %r13d
	.cfi_offset 13, -24
.LVL403:
	pushq	%r12
.LCFI35:
	.cfi_def_cfa_offset 32
	movl	$1, %r12d
	.cfi_offset 12, -32
.LVL404:
	pushq	%rbp
.LCFI36:
	.cfi_def_cfa_offset 40
	movl	%edi, %ebp
	.cfi_offset 6, -40
	pushq	%rbx
.LCFI37:
	.cfi_def_cfa_offset 48
	.loc 1 2896 0
	movq	%rsi, %rbx
	.cfi_offset 3, -48
.LVL405:
	.p2align 4,,10
	.p2align 3
.L281:
	.loc 1 2904 0
	movl	$.LC69, %edx
	movq	%rbx, %rsi
	movl	%ebp, %edi
	call	getopt
.LVL406:
	.loc 1 2905 0
	cmpl	$-1, %eax
.LVL407:
	je	.L273
	.loc 1 2907 0
	cmpl	$103, %eax
	je	.L274
	.p2align 4,,7
	.p2align 3
	jg	.L277
	.loc 1 2896 0
	cmpl	$99, %eax
	cmove	%r14d, %r12d
	.p2align 4,,5
	jmp	.L281
	.p2align 4,,10
	.p2align 3
.L277:
	.loc 1 2907 0
	cmpl	$104, %eax
	.p2align 4,,5
	je	.L275
	.loc 1 2912 0
	cmpl	$111, %eax
	cmove	optarg(%rip), %r13
	jmp	.L281
	.p2align 4,,10
	.p2align 3
.L274:
	.loc 1 2907 0
	xorl	%r12d, %r12d
.LVL408:
	jmp	.L281
	.p2align 4,,10
	.p2align 3
.L275:
	.loc 1 2909 0
	call	usage
.LVL409:
	.p2align 4,,6
	jmp	.L281
.LVL410:
	.p2align 4,,10
	.p2align 3
.L273:
	.loc 1 2922 0
	movl	optind(%rip), %eax
.LVL411:
	cmpl	%eax, %ebp
	jle	.L282
.L278:
	.loc 1 2924 0
	cltq
	.loc 1 2925 0
	movl	$.LC70, %esi
	movq	%r13, %rdi
	.loc 1 2924 0
	movq	(%rbx,%rax,8), %rbp
.LVL412:
	.loc 1 2925 0
	call	fopen64
	.loc 1 2926 0
	testq	%rax, %rax
.LVL413:
	.loc 1 2925 0
	movq	%rax, %rbx
.LVL414:
	.loc 1 2926 0
	je	.L283
	.loc 1 2929 0
	movq	%rbp, %rdi
	call	load_object
	.loc 1 2930 0
	movl	%r12d, %esi
	movq	%rbx, %rdi
	call	gen_file
	.loc 1 2931 0
	movq	%rbx, %rdi
	call	fclose
	.loc 1 2933 0
	popq	%rbx
.LVL415:
	popq	%rbp
.LVL416:
	popq	%r12
.LVL417:
	popq	%r13
.LVL418:
	xorl	%eax, %eax
	popq	%r14
	ret
.LVL419:
.L282:
	.loc 1 2923 0
	call	usage
	movl	optind(%rip), %eax
	jmp	.L278
.LVL420:
.L283:
	.loc 1 2927 0
	movq	%r13, %rsi
	movl	$.LC71, %edi
	xorl	%eax, %eax
	call	error
	.cfi_endproc
.LFE174:
	.size	main, .-main
	.comm	do_swap,4,4
	.comm	symtab,8,8
	.comm	nb_syms,4,4
	.comm	text_shndx,4,4
	.comm	text,8,8
	.comm	relocs,8,8
	.comm	nb_relocs,4,4
	.comm	shdr,8,8
	.comm	sdata,8,8
	.comm	ehdr,64,32
	.comm	strtab,8,8
.Letext0:
	.section	.note.GNU-stack,"",@progbits
